; Function Attrs: nounwind uwtable
define range(i32 -1, 2) i32 @wolfSSL_library_init() local_unnamed_addr #0 {
  %1 = tail call i32 @wc_LockMutex(ptr noundef nonnull @inits_count_mutex) #22
  %.not.i = icmp eq i32 %1, 0
  br i1 %.not.i, label %2, label %wolfSSL_Init.exit.thread

2:                                                ; preds = %0
  %3 = load volatile i32, ptr @initRefCount, align 4, !tbaa !3
  %4 = icmp eq i32 %3, 0
  br i1 %4, label %5, label %12

5:                                                ; preds = %2
  %6 = tail call i32 @wolfCrypt_Init() #22
  %.not7.i = icmp eq i32 %6, 0
  br i1 %.not7.i, label %7, label %.thread13.i

7:                                                ; preds = %5
  %8 = tail call i32 @wc_InitRwLock(ptr noundef nonnull @session_lock) #22
  %.not8.i = icmp eq i32 %8, 0
  br i1 %.not8.i, label %9, label %.thread13.i

9:                                                ; preds = %7
  store i1 true, ptr @session_lock_valid, align 4
  br label %12

.thread13.i:                                      ; preds = %7, %5
  store volatile i32 1, ptr @initRefCount, align 4, !tbaa !3
  %10 = tail call i32 @wc_UnLockMutex(ptr noundef nonnull @inits_count_mutex) #22
  %11 = tail call i32 @wolfSSL_Cleanup()
  br label %wolfSSL_Init.exit.thread

12:                                               ; preds = %9, %2
  %13 = load volatile i32, ptr @initRefCount, align 4, !tbaa !3
  %14 = add nsw i32 %13, 1
  store volatile i32 %14, ptr @initRefCount, align 4, !tbaa !3
  %15 = tail call i32 @wc_UnLockMutex(ptr noundef nonnull @inits_count_mutex) #22
  br label %wolfSSL_Init.exit.thread

wolfSSL_Init.exit.thread:                         ; preds = %.thread13.i, %0, %12
  %16 = phi i32 [ 1, %12 ], [ -1, %0 ], [ -1, %.thread13.i ]
  ret i32 %16
}